#include <math.h>
#include <stdio.h>
#include <stdlib.h>
#include <string.h>

int main()
{
	char a[500],now[5],gram[250][5];
	int n,num[250]={0},i,no,k,j;
	scanf("%d",&n);
	scanf("%s",a);
	for(i=0,no=0;a[i+n-1]!='\0';i++)
	{
		for(k=0;k<n;k++)
		{
			now[k]=a[i+k];
		}
		now[k]='\0';
		if(no==0)
		{
			strcpy(gram[no],now);
			num[no]++;
			no++;
		}
		else
		{
		int flag=0;
		for(j=0;j<no;j++)
		{
			if(strcmp(gram[j],now)==0)
			{
				num[j]++;
				flag=1;
			}
		}
		if(flag==0)
		{
			strcpy(gram[no],now);
			num[no]++;
			no++;
		}
		}
	}
	int max=0;
	for(i=0;i<no;i++)
	{
		if(num[i]>1)
		{
			if(num[i]>max)
			{
				max=num[i];
			}
		}
	}
	if(max==0)
	{
		printf("NO\n");
	}
	else
	{
		printf("%d\n",max);
		for(i=0;i<no;i++)
		{
			if(num[i]==max)
			{
				printf("%s\n",gram[i]);
			}
		}
	}
	return 0;
}