; ModuleID = '51/939.c'
source_filename = "51/939.c"
target datalayout = "e-m:e-p270:32:32-p271:32:32-p272:64:64-i64:64-f80:128-n8:16:32:64-S128"
target triple = "x86_64-pc-linux-gnu"

@.str = private unnamed_addr constant [3 x i8] c"%d\00", align 1
@.str.1 = private unnamed_addr constant [3 x i8] c"%s\00", align 1
@.str.2 = private unnamed_addr constant [4 x i8] c"NO\0A\00", align 1
@.str.3 = private unnamed_addr constant [4 x i8] c"%d\0A\00", align 1
@.str.4 = private unnamed_addr constant [4 x i8] c"%s\0A\00", align 1

; Function Attrs: noinline nounwind uwtable
define dso_local i32 @main() #0 {
  %1 = alloca i32, align 4
  %2 = alloca [500 x i8], align 16
  %3 = alloca [5 x i8], align 1
  %4 = alloca [250 x [5 x i8]], align 16
  %5 = alloca i32, align 4
  %6 = alloca [250 x i32], align 16
  %7 = alloca i32, align 4
  %8 = alloca i32, align 4
  %9 = alloca i32, align 4
  %10 = alloca i32, align 4
  %11 = alloca i32, align 4
  %12 = alloca i32, align 4
  store i32 0, i32* %1, align 4
  %13 = bitcast [250 x i32]* %6 to i8*
  call void @llvm.memset.p0i8.i64(i8* align 16 %13, i8 0, i64 1000, i1 false)
  %14 = call i32 (i8*, ...) @__isoc99_scanf(i8* getelementptr inbounds ([3 x i8], [3 x i8]* @.str, i64 0, i64 0), i32* %5)
  %15 = getelementptr inbounds [500 x i8], [500 x i8]* %2, i64 0, i64 0
  %16 = call i32 (i8*, ...) @__isoc99_scanf(i8* getelementptr inbounds ([3 x i8], [3 x i8]* @.str.1, i64 0, i64 0), i8* %15)
  store i32 0, i32* %7, align 4
  store i32 0, i32* %8, align 4
  br label %17

17:                                               ; preds = %107, %0
  %18 = load i32, i32* %7, align 4
  %19 = load i32, i32* %5, align 4
  %20 = add nsw i32 %18, %19
  %21 = sub nsw i32 %20, 1
  %22 = sext i32 %21 to i64
  %23 = getelementptr inbounds [500 x i8], [500 x i8]* %2, i64 0, i64 %22
  %24 = load i8, i8* %23, align 1
  %25 = sext i8 %24 to i32
  %26 = icmp ne i32 %25, 0
  br i1 %26, label %27, label %110

27:                                               ; preds = %17
  store i32 0, i32* %9, align 4
  br label %28

28:                                               ; preds = %42, %27
  %29 = load i32, i32* %9, align 4
  %30 = load i32, i32* %5, align 4
  %31 = icmp slt i32 %29, %30
  br i1 %31, label %32, label %45

32:                                               ; preds = %28
  %33 = load i32, i32* %7, align 4
  %34 = load i32, i32* %9, align 4
  %35 = add nsw i32 %33, %34
  %36 = sext i32 %35 to i64
  %37 = getelementptr inbounds [500 x i8], [500 x i8]* %2, i64 0, i64 %36
  %38 = load i8, i8* %37, align 1
  %39 = load i32, i32* %9, align 4
  %40 = sext i32 %39 to i64
  %41 = getelementptr inbounds [5 x i8], [5 x i8]* %3, i64 0, i64 %40
  store i8 %38, i8* %41, align 1
  br label %42

42:                                               ; preds = %32
  %43 = load i32, i32* %9, align 4
  %44 = add nsw i32 %43, 1
  store i32 %44, i32* %9, align 4
  br label %28

45:                                               ; preds = %28
  %46 = load i32, i32* %9, align 4
  %47 = sext i32 %46 to i64
  %48 = getelementptr inbounds [5 x i8], [5 x i8]* %3, i64 0, i64 %47
  store i8 0, i8* %48, align 1
  %49 = load i32, i32* %8, align 4
  %50 = icmp eq i32 %49, 0
  br i1 %50, label %51, label %65

51:                                               ; preds = %45
  %52 = load i32, i32* %8, align 4
  %53 = sext i32 %52 to i64
  %54 = getelementptr inbounds [250 x [5 x i8]], [250 x [5 x i8]]* %4, i64 0, i64 %53
  %55 = getelementptr inbounds [5 x i8], [5 x i8]* %54, i64 0, i64 0
  %56 = getelementptr inbounds [5 x i8], [5 x i8]* %3, i64 0, i64 0
  %57 = call i8* @strcpy(i8* %55, i8* %56) #5
  %58 = load i32, i32* %8, align 4
  %59 = sext i32 %58 to i64
  %60 = getelementptr inbounds [250 x i32], [250 x i32]* %6, i64 0, i64 %59
  %61 = load i32, i32* %60, align 4
  %62 = add nsw i32 %61, 1
  store i32 %62, i32* %60, align 4
  %63 = load i32, i32* %8, align 4
  %64 = add nsw i32 %63, 1
  store i32 %64, i32* %8, align 4
  br label %106

65:                                               ; preds = %45
  store i32 0, i32* %11, align 4
  store i32 0, i32* %10, align 4
  br label %66

66:                                               ; preds = %85, %65
  %67 = load i32, i32* %10, align 4
  %68 = load i32, i32* %8, align 4
  %69 = icmp slt i32 %67, %68
  br i1 %69, label %70, label %88

70:                                               ; preds = %66
  %71 = load i32, i32* %10, align 4
  %72 = sext i32 %71 to i64
  %73 = getelementptr inbounds [250 x [5 x i8]], [250 x [5 x i8]]* %4, i64 0, i64 %72
  %74 = getelementptr inbounds [5 x i8], [5 x i8]* %73, i64 0, i64 0
  %75 = getelementptr inbounds [5 x i8], [5 x i8]* %3, i64 0, i64 0
  %76 = call i32 @strcmp(i8* %74, i8* %75) #6
  %77 = icmp eq i32 %76, 0
  br i1 %77, label %78, label %84

78:                                               ; preds = %70
  %79 = load i32, i32* %10, align 4
  %80 = sext i32 %79 to i64
  %81 = getelementptr inbounds [250 x i32], [250 x i32]* %6, i64 0, i64 %80
  %82 = load i32, i32* %81, align 4
  %83 = add nsw i32 %82, 1
  store i32 %83, i32* %81, align 4
  store i32 1, i32* %11, align 4
  br label %84

84:                                               ; preds = %78, %70
  br label %85

85:                                               ; preds = %84
  %86 = load i32, i32* %10, align 4
  %87 = add nsw i32 %86, 1
  store i32 %87, i32* %10, align 4
  br label %66

88:                                               ; preds = %66
  %89 = load i32, i32* %11, align 4
  %90 = icmp eq i32 %89, 0
  br i1 %90, label %91, label %105

91:                                               ; preds = %88
  %92 = load i32, i32* %8, align 4
  %93 = sext i32 %92 to i64
  %94 = getelementptr inbounds [250 x [5 x i8]], [250 x [5 x i8]]* %4, i64 0, i64 %93
  %95 = getelementptr inbounds [5 x i8], [5 x i8]* %94, i64 0, i64 0
  %96 = getelementptr inbounds [5 x i8], [5 x i8]* %3, i64 0, i64 0
  %97 = call i8* @strcpy(i8* %95, i8* %96) #5
  %98 = load i32, i32* %8, align 4
  %99 = sext i32 %98 to i64
  %100 = getelementptr inbounds [250 x i32], [250 x i32]* %6, i64 0, i64 %99
  %101 = load i32, i32* %100, align 4
  %102 = add nsw i32 %101, 1
  store i32 %102, i32* %100, align 4
  %103 = load i32, i32* %8, align 4
  %104 = add nsw i32 %103, 1
  store i32 %104, i32* %8, align 4
  br label %105

105:                                              ; preds = %91, %88
  br label %106

106:                                              ; preds = %105, %51
  br label %107

107:                                              ; preds = %106
  %108 = load i32, i32* %7, align 4
  %109 = add nsw i32 %108, 1
  store i32 %109, i32* %7, align 4
  br label %17

110:                                              ; preds = %17
  store i32 0, i32* %12, align 4
  store i32 0, i32* %7, align 4
  br label %111

111:                                              ; preds = %135, %110
  %112 = load i32, i32* %7, align 4
  %113 = load i32, i32* %8, align 4
  %114 = icmp slt i32 %112, %113
  br i1 %114, label %115, label %138

115:                                              ; preds = %111
  %116 = load i32, i32* %7, align 4
  %117 = sext i32 %116 to i64
  %118 = getelementptr inbounds [250 x i32], [250 x i32]* %6, i64 0, i64 %117
  %119 = load i32, i32* %118, align 4
  %120 = icmp sgt i32 %119, 1
  br i1 %120, label %121, label %134

121:                                              ; preds = %115
  %122 = load i32, i32* %7, align 4
  %123 = sext i32 %122 to i64
  %124 = getelementptr inbounds [250 x i32], [250 x i32]* %6, i64 0, i64 %123
  %125 = load i32, i32* %124, align 4
  %126 = load i32, i32* %12, align 4
  %127 = icmp sgt i32 %125, %126
  br i1 %127, label %128, label %133

128:                                              ; preds = %121
  %129 = load i32, i32* %7, align 4
  %130 = sext i32 %129 to i64
  %131 = getelementptr inbounds [250 x i32], [250 x i32]* %6, i64 0, i64 %130
  %132 = load i32, i32* %131, align 4
  store i32 %132, i32* %12, align 4
  br label %133

133:                                              ; preds = %128, %121
  br label %134

134:                                              ; preds = %133, %115
  br label %135

135:                                              ; preds = %134
  %136 = load i32, i32* %7, align 4
  %137 = add nsw i32 %136, 1
  store i32 %137, i32* %7, align 4
  br label %111

138:                                              ; preds = %111
  %139 = load i32, i32* %12, align 4
  %140 = icmp eq i32 %139, 0
  br i1 %140, label %141, label %143

141:                                              ; preds = %138
  %142 = call i32 (i8*, ...) @printf(i8* getelementptr inbounds ([4 x i8], [4 x i8]* @.str.2, i64 0, i64 0))
  br label %168

143:                                              ; preds = %138
  %144 = load i32, i32* %12, align 4
  %145 = call i32 (i8*, ...) @printf(i8* getelementptr inbounds ([4 x i8], [4 x i8]* @.str.3, i64 0, i64 0), i32 %144)
  store i32 0, i32* %7, align 4
  br label %146

146:                                              ; preds = %164, %143
  %147 = load i32, i32* %7, align 4
  %148 = load i32, i32* %8, align 4
  %149 = icmp slt i32 %147, %148
  br i1 %149, label %150, label %167

150:                                              ; preds = %146
  %151 = load i32, i32* %7, align 4
  %152 = sext i32 %151 to i64
  %153 = getelementptr inbounds [250 x i32], [250 x i32]* %6, i64 0, i64 %152
  %154 = load i32, i32* %153, align 4
  %155 = load i32, i32* %12, align 4
  %156 = icmp eq i32 %154, %155
  br i1 %156, label %157, label %163

157:                                              ; preds = %150
  %158 = load i32, i32* %7, align 4
  %159 = sext i32 %158 to i64
  %160 = getelementptr inbounds [250 x [5 x i8]], [250 x [5 x i8]]* %4, i64 0, i64 %159
  %161 = getelementptr inbounds [5 x i8], [5 x i8]* %160, i64 0, i64 0
  %162 = call i32 (i8*, ...) @printf(i8* getelementptr inbounds ([4 x i8], [4 x i8]* @.str.4, i64 0, i64 0), i8* %161)
  br label %163

163:                                              ; preds = %157, %150
  br label %164

164:                                              ; preds = %163
  %165 = load i32, i32* %7, align 4
  %166 = add nsw i32 %165, 1
  store i32 %166, i32* %7, align 4
  br label %146

167:                                              ; preds = %146
  br label %168

168:                                              ; preds = %167, %141
  ret i32 0
}

; Function Attrs: argmemonly nounwind willreturn
declare void @llvm.memset.p0i8.i64(i8* nocapture writeonly, i8, i64, i1 immarg) #1

declare dso_local i32 @__isoc99_scanf(i8*, ...) #2

; Function Attrs: nounwind
declare dso_local i8* @strcpy(i8*, i8*) #3

; Function Attrs: nounwind readonly
declare dso_local i32 @strcmp(i8*, i8*) #4

declare dso_local i32 @printf(i8*, ...) #2


!llvm.module.flags = !{!0}
!llvm.ident = !{!1}

!0 = !{i32 1, !"wchar_size", i32 4}
!1 = !{!"clang version 10.0.0-4ubuntu1 "}
